target datalayout = "e-m:e-p270:32:32-p271:32:32-p272:64:64-i64:64-i128:128-f80:128-n8:16:32:64-S128"
target triple = "x86_64-pc-linux-gnu"

%"class.std::vector.10" = type { %"struct.std::_Vector_base.11" }
%"struct.std::_Vector_base.11" = type { %"struct.std::_Vector_base<float, std::allocator<float>>::_Vector_impl" }
%"struct.std::_Vector_base<float, std::allocator<float>>::_Vector_impl" = type { %"struct.std::_Vector_base<float, std::allocator<float>>::_Vector_impl_data" }
%"struct.std::_Vector_base<float, std::allocator<float>>::_Vector_impl_data" = type { ptr, ptr, ptr }
%"struct.faiss::Index" = type <{ ptr, i32, [4 x i8], i64, i8, i8, [2 x i8], i32, float, [4 x i8] }>
%"struct.faiss::IndexIVF" = type <{ %"struct.faiss::Index.base", [4 x i8], %"struct.faiss::IndexIVFInterface", ptr, i8, [7 x i8], i64, i32, i32, %"struct.faiss::DirectMap", i8, [7 x i8] }>
%"struct.faiss::Index.base" = type <{ ptr, i32, [4 x i8], i64, i8, i8, [2 x i8], i32, float }>
%"struct.faiss::IndexIVFInterface" = type { ptr, %"struct.faiss::Level1Quantizer", i64, i64 }
%"struct.faiss::Level1Quantizer" = type { ptr, i64, i8, i8, %"struct.faiss::ClusteringParameters", ptr }
%"struct.faiss::ClusteringParameters" = type { i32, i32, i8, i8, i8, i8, i8, i32, i32, i32, i64 }
%"struct.faiss::DirectMap" = type { i32, %"class.std::vector", %"class.std::unordered_map" }
%"class.std::vector" = type { %"struct.std::_Vector_base" }
%"struct.std::_Vector_base" = type { %"struct.std::_Vector_base<long, std::allocator<long>>::_Vector_impl" }
%"struct.std::_Vector_base<long, std::allocator<long>>::_Vector_impl" = type { %"struct.std::_Vector_base<long, std::allocator<long>>::_Vector_impl_data" }
%"struct.std::_Vector_base<long, std::allocator<long>>::_Vector_impl_data" = type { ptr, ptr, ptr }
%"class.std::unordered_map" = type { %"class.std::_Hashtable" }
%"class.std::_Hashtable" = type { ptr, i64, %"struct.std::__detail::_Hash_node_base", i64, %"struct.std::__detail::_Prime_rehash_policy", ptr }
%"struct.std::__detail::_Hash_node_base" = type { ptr }
%"struct.std::__detail::_Prime_rehash_policy" = type { float, i64 }
%"struct.faiss::(anonymous namespace)::AQInvertedListScanner" = type { %"struct.faiss::InvertedListScanner", ptr, ptr, %"class.std::vector.10", ptr, ptr }
%"struct.faiss::InvertedListScanner" = type { ptr, i64, i8, i8, ptr, i64 }
%"struct.faiss::(anonymous namespace)::AQInvertedListScannerLUT.27" = type <{ %"struct.faiss::(anonymous namespace)::AQInvertedListScanner", %"class.std::vector.10", %"class.std::vector.10", float, [4 x i8] }>

; Function Attrs: mustprogress nounwind uwtable
define linkonce_odr noundef ptr @_ZNKSt6vectorIfSaIfEE11_M_data_ptrIfEEPT_S4_(ptr noundef nonnull align 8 dereferenceable(24) %0, ptr noundef %1) #0 comdat align 2 {
  %3 = alloca ptr, align 8
  %4 = alloca ptr, align 8
  store ptr %0, ptr %3, align 8
  store ptr %1, ptr %4, align 8
  %5 = load ptr, ptr %4, align 8
  ret ptr %5
}

; Function Attrs: mustprogress nounwind uwtable
define linkonce_odr noundef ptr @_ZNSt6vectorIfSaIfEE4dataEv(ptr noundef nonnull align 8 dereferenceable(24) %0) #0 comdat align 2 {
  %2 = alloca ptr, align 8
  store ptr %0, ptr %2, align 8
  %3 = load ptr, ptr %2, align 8
  %4 = getelementptr inbounds %"struct.std::_Vector_base.11", ptr %3, i32 0, i32 0
  %5 = getelementptr inbounds %"struct.std::_Vector_base<float, std::allocator<float>>::_Vector_impl_data", ptr %4, i32 0, i32 0
  %6 = load ptr, ptr %5, align 8
  %7 = call noundef ptr @_ZNKSt6vectorIfSaIfEE11_M_data_ptrIfEEPT_S4_(ptr noundef nonnull align 8 dereferenceable(24) %3, ptr noundef %6) #7
  ret ptr %7
}

; Function Attrs: mustprogress uwtable
define internal void @_ZN5faiss12_GLOBAL__N_121AQInvertedListScanner8set_listElf(ptr noundef nonnull align 8 dereferenceable(96) %0, i64 noundef %1, float noundef %2) unnamed_addr #2 align 2 {
  %4 = alloca ptr, align 8
  %5 = alloca i64, align 8
  %6 = alloca float, align 4
  store ptr %0, ptr %4, align 8
  store i64 %1, ptr %5, align 8
  store float %2, ptr %6, align 4
  %7 = load ptr, ptr %4, align 8
  %8 = load i64, ptr %5, align 8
  %9 = getelementptr inbounds %"struct.faiss::InvertedListScanner", ptr %7, i32 0, i32 1
  store i64 %8, ptr %9, align 8
  %10 = getelementptr inbounds %"struct.faiss::(anonymous namespace)::AQInvertedListScanner", ptr %7, i32 0, i32 1
  %11 = load ptr, ptr %10, align 8
  %12 = getelementptr inbounds %"struct.faiss::Index", ptr %11, i32 0, i32 7
  %13 = load i32, ptr %12, align 4
  %14 = icmp eq i32 %13, 1
  br i1 %14, label %15, label %38

15:                                               ; preds = %3
  %16 = getelementptr inbounds %"struct.faiss::(anonymous namespace)::AQInvertedListScanner", ptr %7, i32 0, i32 1
  %17 = load ptr, ptr %16, align 8
  %18 = getelementptr inbounds %"struct.faiss::IndexIVF", ptr %17, i32 0, i32 10
  %19 = load i8, ptr %18, align 8
  %20 = trunc i8 %19 to i1
  br i1 %20, label %21, label %38

21:                                               ; preds = %15
  %22 = getelementptr inbounds %"struct.faiss::(anonymous namespace)::AQInvertedListScanner", ptr %7, i32 0, i32 1
  %23 = load ptr, ptr %22, align 8
  %24 = getelementptr inbounds i8, ptr %23, i64 48
  %25 = getelementptr inbounds %"struct.faiss::Level1Quantizer", ptr %24, i32 0, i32 0
  %26 = load ptr, ptr %25, align 8
  %27 = getelementptr inbounds %"struct.faiss::(anonymous namespace)::AQInvertedListScanner", ptr %7, i32 0, i32 4
  %28 = load ptr, ptr %27, align 8
  %29 = getelementptr inbounds %"struct.faiss::(anonymous namespace)::AQInvertedListScanner", ptr %7, i32 0, i32 3
  %30 = call noundef ptr @_ZNSt6vectorIfSaIfEE4dataEv(ptr noundef nonnull align 8 dereferenceable(24) %29) #7
  %31 = load i64, ptr %5, align 8
  %32 = load ptr, ptr %26, align 8
  %33 = getelementptr inbounds ptr, ptr %32, i64 14
  %34 = load ptr, ptr %33, align 8
  call void %34(ptr noundef nonnull align 8 dereferenceable(36) %26, ptr noundef %28, ptr noundef %30, i64 noundef %31)
  %35 = getelementptr inbounds %"struct.faiss::(anonymous namespace)::AQInvertedListScanner", ptr %7, i32 0, i32 3
  %36 = call noundef ptr @_ZNSt6vectorIfSaIfEE4dataEv(ptr noundef nonnull align 8 dereferenceable(24) %35) #7
  %37 = getelementptr inbounds %"struct.faiss::(anonymous namespace)::AQInvertedListScanner", ptr %7, i32 0, i32 5
  store ptr %36, ptr %37, align 8
  br label %42

38:                                               ; preds = %15, %3
  %39 = getelementptr inbounds %"struct.faiss::(anonymous namespace)::AQInvertedListScanner", ptr %7, i32 0, i32 4
  %40 = load ptr, ptr %39, align 8
  %41 = getelementptr inbounds %"struct.faiss::(anonymous namespace)::AQInvertedListScanner", ptr %7, i32 0, i32 5
  store ptr %40, ptr %41, align 8
  br label %42

42:                                               ; preds = %38, %21
  ret void
}

; Function Attrs: mustprogress uwtable
define internal void @_ZN5faiss12_GLOBAL__N_124AQInvertedListScannerLUTILb0ELNS_17AdditiveQuantizer13Search_type_tE3EE8set_listElf(ptr noundef nonnull align 8 dereferenceable(148) %0, i64 noundef %1, float noundef %2) unnamed_addr #2 align 2 {
  %4 = alloca ptr, align 8
  %5 = alloca i64, align 8
  %6 = alloca float, align 4
  store ptr %0, ptr %4, align 8
  store i64 %1, ptr %5, align 8
  store float %2, ptr %6, align 4
  %7 = load ptr, ptr %4, align 8
  %8 = load i64, ptr %5, align 8
  %9 = load float, ptr %6, align 4
  call void @_ZN5faiss12_GLOBAL__N_121AQInvertedListScanner8set_listElf(ptr noundef nonnull align 8 dereferenceable(96) %7, i64 noundef %8, float noundef %9)
  %10 = getelementptr inbounds %"struct.faiss::(anonymous namespace)::AQInvertedListScanner", ptr %7, i32 0, i32 2
  %11 = load ptr, ptr %10, align 8
  %12 = getelementptr inbounds %"struct.faiss::(anonymous namespace)::AQInvertedListScanner", ptr %7, i32 0, i32 5
  %13 = load ptr, ptr %12, align 8
  %14 = getelementptr inbounds %"struct.faiss::(anonymous namespace)::AQInvertedListScannerLUT.27", ptr %7, i32 0, i32 1
  %15 = call noundef ptr @_ZNSt6vectorIfSaIfEE4dataEv(ptr noundef nonnull align 8 dereferenceable(24) %14) #7
  %16 = load ptr, ptr %11, align 8
  %17 = getelementptr inbounds ptr, ptr %16, i64 7
  %18 = load ptr, ptr %17, align 8
  call void %18(ptr noundef nonnull align 8 dereferenceable(308) %11, i64 noundef 1, ptr noundef %13, ptr noundef %15, float noundef 1.000000e+00, i64 noundef -1)
  %19 = getelementptr inbounds %"struct.faiss::(anonymous namespace)::AQInvertedListScanner", ptr %7, i32 0, i32 1
  %20 = load ptr, ptr %19, align 8
  %21 = getelementptr inbounds %"struct.faiss::IndexIVF", ptr %20, i32 0, i32 10
  %22 = load i8, ptr %21, align 8
  %23 = trunc i8 %22 to i1
  br i1 %23, label %24, label %27

24:                                               ; preds = %3
  %25 = load float, ptr %6, align 4
  %26 = getelementptr inbounds %"struct.faiss::(anonymous namespace)::AQInvertedListScannerLUT.27", ptr %7, i32 0, i32 3
  store float %25, ptr %26, align 8
  br label %27

27:                                               ; preds = %24, %3
  ret void
}