; Function Attrs: mustprogress uwtable
define internal void @_ZN5faiss12_GLOBAL__N_124AQInvertedListScannerLUTILb0ELNS_17AdditiveQuantizer13Search_type_tE3EE8set_listElf(ptr nocapture noundef nonnull align 8 dereferenceable(148) %0, i64 noundef %1, float noundef %2) unnamed_addr #2 align 2 {
  %4 = getelementptr inbounds i8, ptr %0, i64 8
  store i64 %1, ptr %4, align 8
  %5 = getelementptr inbounds i8, ptr %0, i64 40
  %6 = load ptr, ptr %5, align 8
  %7 = getelementptr inbounds i8, ptr %6, i64 28
  %8 = load i32, ptr %7, align 4
  %9 = icmp eq i32 %8, 1
  br i1 %9, label %10, label %24

10:                                               ; preds = %3
  %11 = getelementptr inbounds i8, ptr %6, i64 256
  %12 = load i8, ptr %11, align 8
  %13 = and i8 %12, 1
  %.not.i = icmp eq i8 %13, 0
  br i1 %.not.i, label %24, label %14

14:                                               ; preds = %10
  %15 = getelementptr inbounds i8, ptr %6, i64 48
  %16 = load ptr, ptr %15, align 8
  %17 = getelementptr inbounds i8, ptr %0, i64 80
  %18 = load ptr, ptr %17, align 8
  %19 = getelementptr inbounds i8, ptr %0, i64 56
  %20 = load ptr, ptr %19, align 8
  %21 = load ptr, ptr %16, align 8
  %22 = getelementptr inbounds i8, ptr %21, i64 112
  %23 = load ptr, ptr %22, align 8
  tail call void %23(ptr noundef nonnull align 8 dereferenceable(36) %16, ptr noundef %18, ptr noundef %20, i64 noundef %1)
  br label %_ZN5faiss12_GLOBAL__N_121AQInvertedListScanner8set_listElf.exit

24:                                               ; preds = %10, %3
  %25 = getelementptr inbounds i8, ptr %0, i64 80
  br label %_ZN5faiss12_GLOBAL__N_121AQInvertedListScanner8set_listElf.exit

_ZN5faiss12_GLOBAL__N_121AQInvertedListScanner8set_listElf.exit: ; preds = %14, %24
  %.sink3.i = phi ptr [ %25, %24 ], [ %19, %14 ]
  %26 = load ptr, ptr %.sink3.i, align 8
  %27 = getelementptr inbounds i8, ptr %0, i64 88
  store ptr %26, ptr %27, align 8
  %28 = getelementptr inbounds i8, ptr %0, i64 48
  %29 = load ptr, ptr %28, align 8
  %30 = getelementptr inbounds i8, ptr %0, i64 96
  %31 = load ptr, ptr %30, align 8
  %32 = load ptr, ptr %29, align 8
  %33 = getelementptr inbounds i8, ptr %32, i64 56
  %34 = load ptr, ptr %33, align 8
  tail call void %34(ptr noundef nonnull align 8 dereferenceable(308) %29, i64 noundef 1, ptr noundef %26, ptr noundef %31, float noundef 1.000000e+00, i64 noundef -1)
  %35 = load ptr, ptr %5, align 8
  %36 = getelementptr inbounds i8, ptr %35, i64 256
  %37 = load i8, ptr %36, align 8
  %38 = and i8 %37, 1
  %.not = icmp eq i8 %38, 0
  br i1 %.not, label %41, label %39

39:                                               ; preds = %_ZN5faiss12_GLOBAL__N_121AQInvertedListScanner8set_listElf.exit
  %40 = getelementptr inbounds i8, ptr %0, i64 144
  store float %2, ptr %40, align 8
  br label %41

41:                                               ; preds = %39, %_ZN5faiss12_GLOBAL__N_121AQInvertedListScanner8set_listElf.exit
  ret void
}